; Function Attrs: mustprogress nofree norecurse nosync nounwind willreturn memory(argmem: write) uwtable
define hidden void @_ZN17opencv_tensorflow20TensorShapeProto_DimC2EPN6google8protobuf5ArenaEb(ptr noundef nonnull writeonly align 8 captures(none) dereferenceable(40) initializes((0, 36)) %0, ptr noundef %1, i1 noundef zeroext %2) unnamed_addr #4 align 2 personality ptr @__gxx_personality_v0 {
  %4 = getelementptr inbounds nuw i8, ptr %0, i64 8
  %5 = ptrtoint ptr %1 to i64
  %6 = or i64 %5, 2
  %7 = select i1 %2, i64 %6, i64 %5
  store i64 %7, ptr %4, align 8, !tbaa !3
  store ptr getelementptr inbounds nuw inrange(-16, 152) (i8, ptr @_ZTVN17opencv_tensorflow20TensorShapeProto_DimE, i64 16), ptr %0, align 8, !tbaa !8
  %8 = getelementptr inbounds nuw i8, ptr %0, i64 32
  store i32 0, ptr %8, align 8, !tbaa !10
  %9 = getelementptr inbounds nuw i8, ptr %0, i64 16
  store ptr @_ZN6google8protobuf8internal26fixed_address_empty_stringB5cxx11E, ptr %9, align 8, !tbaa !13
  %10 = getelementptr inbounds nuw i8, ptr %0, i64 24
  store i64 0, ptr %10, align 8, !tbaa !16
  ret void
}